target datalayout = "e-m:e-p270:32:32-p271:32:32-p272:64:64-i64:64-i128:128-f80:128-n8:16:32:64-S128"
target triple = "x86_64-pc-linux-gnu"

%struct.protobuf_udp_message_type_t = type { ptr, ptr }

@protobuf_udp_message_types_update_cb.empty = internal global ptr null, align 8
@.str.171 = private unnamed_addr constant [55 x i8] c"Must specify UDP port(s) (like 8000 or 8000,8008-8088)\00", align 1

; Function Attrs: null_pointer_is_valid sspstrong uwtable
define internal zeroext i1 @protobuf_udp_message_types_update_cb(ptr noundef %0, ptr noundef %1) #0 {
  %3 = alloca i1, align 1
  %4 = alloca ptr, align 8
  %5 = alloca ptr, align 8
  %6 = alloca ptr, align 8
  %7 = alloca i32, align 4
  store ptr %0, ptr %4, align 8
  store ptr %1, ptr %5, align 8
  call void @llvm.lifetime.start.p0(i64 8, ptr %6) #18
  %8 = load ptr, ptr %4, align 8
  store ptr %8, ptr %6, align 8
  %9 = call ptr @range_empty(ptr noundef null)
  store ptr %9, ptr @protobuf_udp_message_types_update_cb.empty, align 8
  %10 = load ptr, ptr %6, align 8
  %11 = getelementptr inbounds nuw %struct.protobuf_udp_message_type_t, ptr %10, i32 0, i32 0
  %12 = load ptr, ptr %11, align 8
  %13 = load ptr, ptr @protobuf_udp_message_types_update_cb.empty, align 8
  %14 = call zeroext i1 @ranges_are_equal(ptr noundef %12, ptr noundef %13)
  br i1 %14, label %15, label %19

15:                                               ; preds = %2
  %16 = call noalias ptr @g_strdup(ptr noundef @.str.171)
  %17 = load ptr, ptr %5, align 8
  store ptr %16, ptr %17, align 8
  %18 = load ptr, ptr @protobuf_udp_message_types_update_cb.empty, align 8
  call void @wmem_free(ptr noundef null, ptr noundef %18)
  store i1 false, ptr %3, align 1
  store i32 1, ptr %7, align 4
  br label %21

19:                                               ; preds = %2
  %20 = load ptr, ptr @protobuf_udp_message_types_update_cb.empty, align 8
  call void @wmem_free(ptr noundef null, ptr noundef %20)
  store i1 true, ptr %3, align 1
  store i32 1, ptr %7, align 4
  br label %21

21:                                               ; preds = %19, %15
  call void @llvm.lifetime.end.p0(i64 8, ptr %6) #18
  %22 = load i1, ptr %3, align 1
  ret i1 %22
}