; Function Attrs: null_pointer_is_valid sspstrong uwtable
define internal noundef zeroext i1 @protobuf_udp_message_types_update_cb(ptr noundef readonly captures(none) %0, ptr noundef writeonly captures(none) %1) #0 {
  %3 = tail call ptr @range_empty(ptr noundef null)
  store ptr %3, ptr @protobuf_udp_message_types_update_cb.empty, align 8
  %4 = load ptr, ptr %0, align 8
  %5 = tail call zeroext i1 @ranges_are_equal(ptr noundef %4, ptr noundef %3)
  br i1 %5, label %6, label %8

6:                                                ; preds = %2
  %7 = tail call noalias ptr @g_strdup(ptr noundef nonnull @.str.171)
  store ptr %7, ptr %1, align 8
  br label %8

8:                                                ; preds = %2, %6
  %9 = load ptr, ptr @protobuf_udp_message_types_update_cb.empty, align 8
  tail call void @wmem_free(ptr noundef null, ptr noundef %9)
  %.0 = xor i1 %5, true
  ret i1 %.0
}